target datalayout = "e-m:e-p270:32:32-p271:32:32-p272:64:64-i64:64-i128:128-f80:128-n8:16:32:64-S128"
target triple = "x86_64-pc-linux-gnu"

%class.XObjectAllocator = type { i8, %class.XValue, %class.XValue, %class.XValue, %class.XValue, %class.XValue.1, %class.XValue.2 }
%class.XValue = type { i64 }
%class.XValue.1 = type { i64 }
%class.XValue.2 = type { i64 }
%class.XPageTable = type { %class.XGranuleMap }
%class.XGranuleMap = type { i64, ptr }
%class.XPage = type { i8, i8, i32, %class.XVirtualMemory, i64, %class.XLiveMap, i64, %class.XPhysicalMemory, %class.XListNode }
%class.XVirtualMemory = type { i64, i64 }
%class.XLiveMap = type { i32, i32, i64, i64, i64, %class.XBitMap, i64 }
%class.XBitMap = type { %class.CHeapBitMap.base, [7 x i8] }
%class.CHeapBitMap.base = type <{ %class.GrowableBitMap, i8 }>
%class.GrowableBitMap = type { %class.BitMap }
%class.BitMap = type { ptr, i64 }
%class.XPhysicalMemory = type { %class.GrowableArrayCHeap }
%class.GrowableArrayCHeap = type { %class.GrowableArrayWithAllocator }
%class.GrowableArrayWithAllocator = type { %class.GrowableArrayView }
%class.GrowableArrayView = type { %class.GrowableArrayBase, ptr }
%class.GrowableArrayBase = type { i32, i32 }
%class.XListNode = type { ptr, ptr }
%class.PaddedEnd = type { %class.PaddedEndImpl }
%class.PaddedEndImpl = type { %"struct.XCPU::XCPUAffinity", [120 x i8] }
%"struct.XCPU::XCPUAffinity" = type { ptr }
%"struct.Atomic::PlatformAdd" = type { i8 }

@_ZN4XCPU9_affinityE = external global ptr, align 8
@_ZN4XCPU4_cpuE = external thread_local global i32, align 4
@_ZN4XCPU5_selfE = external thread_local global ptr, align 8
@XAddressOffsetMask = external global i64, align 8
@XObjectAlignmentSmall = external constant ptr, align 8
@XObjectAlignmentMedium = external global i32, align 4

; Function Attrs: mustprogress nounwind uwtable
define linkonce_odr hidden noundef i64 @_ZNK6Atomic11PlatformAddILm8EE14fetch_then_addImmEET_PVS3_T0_19atomic_memory_order(ptr noundef nonnull align 1 dereferenceable(1) %0, ptr noundef %1, i64 noundef %2, i32 noundef %3) #1 comdat align 2 {
  %5 = alloca ptr, align 8
  %6 = alloca ptr, align 8
  %7 = alloca i64, align 8
  %8 = alloca i32, align 4
  %9 = alloca i64, align 8
  store ptr %0, ptr %5, align 8
  store ptr %1, ptr %6, align 8
  store i64 %2, ptr %7, align 8
  store i32 %3, ptr %8, align 4
  %10 = load i64, ptr %7, align 8
  %11 = load ptr, ptr %6, align 8
  %12 = call i64 asm sideeffect "lock xaddq $0,($2)", "=r,0,r,~{cc},~{memory},~{dirflag},~{fpsr},~{flags}"(i64 %10, ptr %11) #5, !srcloc !19
  store i64 %12, ptr %9, align 8
  %13 = load i64, ptr %9, align 8
  ret i64 %13
}

; Function Attrs: mustprogress nounwind uwtable
define linkonce_odr hidden noundef i64 @_ZNK6Atomic11PlatformAddILm8EE14add_then_fetchImmEET_PVS3_T0_19atomic_memory_order(ptr noundef nonnull align 1 dereferenceable(1) %0, ptr noundef %1, i64 noundef %2, i32 noundef %3) #1 comdat align 2 {
  %5 = alloca ptr, align 8
  %6 = alloca ptr, align 8
  %7 = alloca i64, align 8
  %8 = alloca i32, align 4
  store ptr %0, ptr %5, align 8
  store ptr %1, ptr %6, align 8
  store i64 %2, ptr %7, align 8
  store i32 %3, ptr %8, align 4
  %9 = load ptr, ptr %5, align 8
  %10 = load ptr, ptr %6, align 8
  %11 = load i64, ptr %7, align 8
  %12 = load i32, ptr %8, align 4
  %13 = call noundef i64 @_ZNK6Atomic11PlatformAddILm8EE14fetch_then_addImmEET_PVS3_T0_19atomic_memory_order(ptr noundef nonnull align 1 dereferenceable(1) %9, ptr noundef %10, i64 noundef %11, i32 noundef %12)
  %14 = load i64, ptr %7, align 8
  %15 = add i64 %13, %14
  ret i64 %15
}

; Function Attrs: mustprogress nounwind uwtable
define linkonce_odr hidden noundef i64 @_ZNK11XGranuleMapIP5XPageE16index_for_offsetEm(ptr noundef nonnull align 8 dereferenceable(16) %0, i64 noundef %1) #1 comdat align 2 {
  %3 = alloca ptr, align 8
  %4 = alloca i64, align 8
  %5 = alloca i64, align 8
  store ptr %0, ptr %3, align 8
  store i64 %1, ptr %4, align 8
  %6 = load i64, ptr %4, align 8
  %7 = lshr i64 %6, 21
  store i64 %7, ptr %5, align 8
  %8 = load i64, ptr %5, align 8
  ret i64 %8
}

; Function Attrs: mustprogress nounwind uwtable
define linkonce_odr hidden noundef i64 @_ZN6Atomic7AddImplImmvE14add_then_fetchEPVmm19atomic_memory_order(ptr noundef %0, i64 noundef %1, i32 noundef %2) #1 comdat align 2 {
  %4 = alloca ptr, align 8
  %5 = alloca i64, align 8
  %6 = alloca i32, align 4
  %7 = alloca i64, align 8
  %8 = alloca %"struct.Atomic::PlatformAdd", align 1
  store ptr %0, ptr %4, align 8
  store i64 %1, ptr %5, align 8
  store i32 %2, ptr %6, align 4
  %9 = load i64, ptr %5, align 8
  store i64 %9, ptr %7, align 8
  %10 = load ptr, ptr %4, align 8
  %11 = load i64, ptr %7, align 8
  %12 = load i32, ptr %6, align 4
  %13 = call noundef i64 @_ZNK6Atomic11PlatformAddILm8EE14add_then_fetchImmEET_PVS3_T0_19atomic_memory_order(ptr noundef nonnull align 1 dereferenceable(1) %8, ptr noundef %10, i64 noundef %11, i32 noundef %12)
  ret i64 %13
}

; Function Attrs: mustprogress nounwind uwtable
define linkonce_odr hidden noundef i64 @_ZNK6XValueI14XPerCPUStoragemE10value_addrEj(ptr noundef nonnull align 8 dereferenceable(8) %0, i32 noundef %1) #1 comdat align 2 {
  %3 = alloca ptr, align 8
  %4 = alloca i32, align 4
  store ptr %0, ptr %3, align 8
  store i32 %1, ptr %4, align 4
  %5 = load ptr, ptr %3, align 8
  %6 = getelementptr inbounds %class.XValue, ptr %5, i32 0, i32 0
  %7 = load i64, ptr %6, align 8
  %8 = load i32, ptr %4, align 4
  %9 = zext i32 %8 to i64
  %10 = mul i64 %9, 4096
  %11 = add i64 %7, %10
  ret i64 %11
}

; Function Attrs: mustprogress nounwind uwtable
define linkonce_odr hidden noundef i32 @_ZN4XCPU2idEv() #1 comdat align 2 {
  %1 = alloca i32, align 4
  %2 = load ptr, ptr @_ZN4XCPU9_affinityE, align 8
  %3 = call align 4 ptr @llvm.threadlocal.address.p0(ptr align 4 @_ZN4XCPU4_cpuE)
  %4 = load i32, ptr %3, align 4
  %5 = zext i32 %4 to i64
  %6 = getelementptr inbounds %class.PaddedEnd, ptr %2, i64 %5
  %7 = getelementptr inbounds %"struct.XCPU::XCPUAffinity", ptr %6, i32 0, i32 0
  %8 = load ptr, ptr %7, align 8
  %9 = call align 8 ptr @llvm.threadlocal.address.p0(ptr align 8 @_ZN4XCPU5_selfE)
  %10 = load ptr, ptr %9, align 8
  %11 = icmp eq ptr %8, %10
  br i1 %11, label %12, label %15

12:                                               ; preds = %0
  %13 = call align 4 ptr @llvm.threadlocal.address.p0(ptr align 4 @_ZN4XCPU4_cpuE)
  %14 = load i32, ptr %13, align 4
  store i32 %14, ptr %1, align 4
  br label %17

15:                                               ; preds = %0
  %16 = call noundef i32 @_ZN4XCPU7id_slowEv()
  store i32 %16, ptr %1, align 4
  br label %17

17:                                               ; preds = %15, %12
  %18 = load i32, ptr %1, align 4
  ret i32 %18
}

; Function Attrs: mustprogress nounwind uwtable
define linkonce_odr hidden noundef i64 @_Z10align_downImmTnNSt9enable_ifIXcvbsr3std11is_integralIT_EE5valueEiE4typeELi0EES1_S1_T0_(i64 noundef %0, i64 noundef %1) #1 comdat {
  %3 = alloca i64, align 8
  %4 = alloca i64, align 8
  %5 = alloca i64, align 8
  store i64 %0, ptr %3, align 8
  store i64 %1, ptr %4, align 8
  %6 = load i64, ptr %3, align 8
  %7 = load i64, ptr %4, align 8
  %8 = call noundef i64 @_ZL14alignment_maskImTnNSt9enable_ifIXcvbsr3std11is_integralIT_EE5valueEiE4typeELi0EES1_S1_(i64 noundef %7)
  %9 = xor i64 %8, -1
  %10 = and i64 %6, %9
  store i64 %10, ptr %5, align 8
  %11 = load i64, ptr %5, align 8
  ret i64 %11
}

; Function Attrs: mustprogress nounwind uwtable
define linkonce_odr hidden noundef i64 @_Z12checked_castImmET_T0_(i64 noundef %0) #1 comdat {
  %2 = alloca i64, align 8
  %3 = alloca i64, align 8
  store i64 %0, ptr %2, align 8
  %4 = load i64, ptr %2, align 8
  store i64 %4, ptr %3, align 8
  %5 = load i64, ptr %3, align 8
  ret i64 %5
}

; Function Attrs: mustprogress nounwind uwtable
define internal noundef i64 @_ZL14alignment_maskImTnNSt9enable_ifIXcvbsr3std11is_integralIT_EE5valueEiE4typeELi0EES1_S1_(i64 noundef %0) #1 {
  %2 = alloca i64, align 8
  store i64 %0, ptr %2, align 8
  %3 = load i64, ptr %2, align 8
  %4 = sub i64 %3, 1
  ret i64 %4
}

; Function Attrs: mustprogress nounwind uwtable
define linkonce_odr hidden noundef zeroext i8 @_ZNK5XPage4typeEv(ptr noundef nonnull align 8 dereferenceable(136) %0) #1 comdat align 2 {
  %2 = alloca ptr, align 8
  store ptr %0, ptr %2, align 8
  %3 = load ptr, ptr %2, align 8
  %4 = getelementptr inbounds %class.XPage, ptr %3, i32 0, i32 0
  %5 = load i8, ptr %4, align 8
  ret i8 %5
}

; Function Attrs: mustprogress nounwind uwtable
define linkonce_odr hidden noundef ptr @_ZNK11XGranuleMapIP5XPageE3getEm(ptr noundef nonnull align 8 dereferenceable(16) %0, i64 noundef %1) #1 comdat align 2 {
  %3 = alloca ptr, align 8
  %4 = alloca i64, align 8
  %5 = alloca i64, align 8
  store ptr %0, ptr %3, align 8
  store i64 %1, ptr %4, align 8
  %6 = load ptr, ptr %3, align 8
  %7 = load i64, ptr %4, align 8
  %8 = call noundef i64 @_ZNK11XGranuleMapIP5XPageE16index_for_offsetEm(ptr noundef nonnull align 8 dereferenceable(16) %6, i64 noundef %7)
  store i64 %8, ptr %5, align 8
  %9 = getelementptr inbounds %class.XGranuleMap, ptr %6, i32 0, i32 1
  %10 = load ptr, ptr %9, align 8
  %11 = load i64, ptr %5, align 8
  %12 = getelementptr inbounds ptr, ptr %10, i64 %11
  %13 = load ptr, ptr %12, align 8
  ret ptr %13
}

; Function Attrs: mustprogress nounwind uwtable
define linkonce_odr hidden noundef i64 @_ZN8XAddress6offsetEm(i64 noundef %0) #1 comdat align 2 {
  %2 = alloca i64, align 8
  store i64 %0, ptr %2, align 8
  %3 = load i64, ptr %2, align 8
  %4 = load i64, ptr @XAddressOffsetMask, align 8
  %5 = and i64 %3, %4
  ret i64 %5
}

; Function Attrs: mustprogress nounwind uwtable
define linkonce_odr hidden noundef i64 @_ZN6Atomic3addImmEET_PVS1_T0_19atomic_memory_order(ptr noundef %0, i64 noundef %1, i32 noundef %2) #1 comdat align 2 {
  %4 = alloca ptr, align 8
  %5 = alloca i64, align 8
  %6 = alloca i32, align 4
  store ptr %0, ptr %4, align 8
  store i64 %1, ptr %5, align 8
  store i32 %2, ptr %6, align 4
  %7 = load ptr, ptr %4, align 8
  %8 = load i64, ptr %5, align 8
  %9 = load i32, ptr %6, align 4
  %10 = call noundef i64 @_ZN6Atomic7AddImplImmvE14add_then_fetchEPVmm19atomic_memory_order(ptr noundef %7, i64 noundef %8, i32 noundef %9)
  ret i64 %10
}

; Function Attrs: mustprogress nounwind uwtable
define linkonce_odr hidden noundef ptr @_ZN6XValueI14XPerCPUStoragemE4addrEj(ptr noundef nonnull align 8 dereferenceable(8) %0, i32 noundef %1) #1 comdat align 2 {
  %3 = alloca ptr, align 8
  %4 = alloca i32, align 4
  store ptr %0, ptr %3, align 8
  store i32 %1, ptr %4, align 4
  %5 = load ptr, ptr %3, align 8
  %6 = load i32, ptr %4, align 4
  %7 = call noundef i64 @_ZNK6XValueI14XPerCPUStoragemE10value_addrEj(ptr noundef nonnull align 8 dereferenceable(8) %5, i32 noundef %6)
  %8 = inttoptr i64 %7 to ptr
  ret ptr %8
}

; Function Attrs: mustprogress nounwind uwtable
define linkonce_odr hidden noundef i32 @_ZN14XPerCPUStorage2idEv() #1 comdat align 2 {
  %1 = call noundef i32 @_ZN4XCPU2idEv()
  ret i32 %1
}

; Function Attrs: mustprogress nounwind uwtable
define linkonce_odr hidden noundef i64 @_Z8align_upImmTnNSt9enable_ifIXcvbsr3std11is_integralIT_EE5valueEiE4typeELi0EES1_S1_T0_(i64 noundef %0, i64 noundef %1) #1 comdat {
  %3 = alloca i64, align 8
  %4 = alloca i64, align 8
  %5 = alloca i64, align 8
  store i64 %0, ptr %3, align 8
  store i64 %1, ptr %4, align 8
  %6 = load i64, ptr %3, align 8
  %7 = load i64, ptr %4, align 8
  %8 = call noundef i64 @_ZL14alignment_maskImTnNSt9enable_ifIXcvbsr3std11is_integralIT_EE5valueEiE4typeELi0EES1_S1_(i64 noundef %7)
  %9 = add i64 %6, %8
  %10 = call noundef i64 @_Z12checked_castImmET_T0_(i64 noundef %9)
  store i64 %10, ptr %5, align 8
  %11 = load i64, ptr %5, align 8
  %12 = load i64, ptr %4, align 8
  %13 = call noundef i64 @_Z10align_downImmTnNSt9enable_ifIXcvbsr3std11is_integralIT_EE5valueEiE4typeELi0EES1_S1_T0_(i64 noundef %11, i64 noundef %12)
  ret i64 %13
}

; Function Attrs: mustprogress nounwind uwtable
define linkonce_odr hidden noundef i64 @_ZNK5XPage16object_alignmentEv(ptr noundef nonnull align 8 dereferenceable(136) %0) #1 comdat align 2 {
  %2 = alloca i64, align 8
  %3 = alloca ptr, align 8
  store ptr %0, ptr %3, align 8
  %4 = load ptr, ptr %3, align 8
  %5 = call noundef zeroext i8 @_ZNK5XPage4typeEv(ptr noundef nonnull align 8 dereferenceable(136) %4)
  %6 = zext i8 %5 to i32
  switch i32 %6, label %14 [
    i32 0, label %7
    i32 1, label %11
  ]

7:                                                ; preds = %1
  %8 = load ptr, ptr @XObjectAlignmentSmall, align 8
  %9 = load i32, ptr %8, align 4
  %10 = sext i32 %9 to i64
  store i64 %10, ptr %2, align 8
  br label %15

11:                                               ; preds = %1
  %12 = load i32, ptr @XObjectAlignmentMedium, align 4
  %13 = sext i32 %12 to i64
  store i64 %13, ptr %2, align 8
  br label %15

14:                                               ; preds = %1
  store i64 2097152, ptr %2, align 8
  br label %15

15:                                               ; preds = %14, %11, %7
  %16 = load i64, ptr %2, align 8
  ret i64 %16
}

; Function Attrs: mustprogress nounwind uwtable
define linkonce_odr hidden noundef ptr @_ZNK10XPageTable3getEm(ptr noundef nonnull align 8 dereferenceable(16) %0, i64 noundef %1) #1 comdat align 2 {
  %3 = alloca ptr, align 8
  %4 = alloca i64, align 8
  store ptr %0, ptr %3, align 8
  store i64 %1, ptr %4, align 8
  %5 = load ptr, ptr %3, align 8
  %6 = getelementptr inbounds %class.XPageTable, ptr %5, i32 0, i32 0
  %7 = load i64, ptr %4, align 8
  %8 = call noundef i64 @_ZN8XAddress6offsetEm(i64 noundef %7)
  %9 = call noundef ptr @_ZNK11XGranuleMapIP5XPageE3getEm(ptr noundef nonnull align 8 dereferenceable(16) %6, i64 noundef %8)
  ret ptr %9
}

; Function Attrs: mustprogress nounwind uwtable
define hidden void @_ZN16XObjectAllocator29register_alloc_for_relocationEPK10XPageTablemm(ptr noundef nonnull align 8 dereferenceable(56) %0, ptr noundef %1, i64 noundef %2, i64 noundef %3) #1 align 2 {
  %5 = alloca ptr, align 8
  %6 = alloca ptr, align 8
  %7 = alloca i64, align 8
  %8 = alloca i64, align 8
  %9 = alloca ptr, align 8
  %10 = alloca i64, align 8
  store ptr %0, ptr %5, align 8
  store ptr %1, ptr %6, align 8
  store i64 %2, ptr %7, align 8
  store i64 %3, ptr %8, align 8
  %11 = load ptr, ptr %5, align 8
  %12 = load ptr, ptr %6, align 8
  %13 = load i64, ptr %7, align 8
  %14 = call noundef ptr @_ZNK10XPageTable3getEm(ptr noundef nonnull align 8 dereferenceable(16) %12, i64 noundef %13)
  store ptr %14, ptr %9, align 8
  %15 = load i64, ptr %8, align 8
  %16 = load ptr, ptr %9, align 8
  %17 = call noundef i64 @_ZNK5XPage16object_alignmentEv(ptr noundef nonnull align 8 dereferenceable(136) %16)
  %18 = call noundef i64 @_Z8align_upImmTnNSt9enable_ifIXcvbsr3std11is_integralIT_EE5valueEiE4typeELi0EES1_S1_T0_(i64 noundef %15, i64 noundef %17)
  store i64 %18, ptr %10, align 8
  %19 = getelementptr inbounds %class.XObjectAllocator, ptr %11, i32 0, i32 3
  %20 = call noundef i32 @_ZN14XPerCPUStorage2idEv()
  %21 = call noundef ptr @_ZN6XValueI14XPerCPUStoragemE4addrEj(ptr noundef nonnull align 8 dereferenceable(8) %19, i32 noundef %20)
  %22 = load i64, ptr %10, align 8
  %23 = call noundef i64 @_ZN6Atomic3addImmEET_PVS1_T0_19atomic_memory_order(ptr noundef %21, i64 noundef %22, i32 noundef 8)
  ret void
}