; Function Attrs: mustprogress nounwind uwtable
define hidden void @_ZN16XObjectAllocator29register_alloc_for_relocationEPK10XPageTablemm(ptr nocapture noundef nonnull readonly align 8 dereferenceable(56) %0, ptr nocapture noundef readonly %1, i64 noundef %2, i64 noundef %3) local_unnamed_addr #1 align 2 {
  %5 = load i64, ptr @XAddressOffsetMask, align 8
  %6 = and i64 %5, %2
  %7 = lshr i64 %6, 21
  %8 = getelementptr inbounds i8, ptr %1, i64 8
  %9 = load ptr, ptr %8, align 8
  %10 = getelementptr inbounds ptr, ptr %9, i64 %7
  %11 = load ptr, ptr %10, align 8
  %12 = load i8, ptr %11, align 8
  switch i8 %12, label %_ZNK5XPage16object_alignmentEv.exit [
    i8 0, label %13
    i8 1, label %_ZNK5XPage16object_alignmentEv.exit.sink.split
  ]

13:                                               ; preds = %4
  %14 = load ptr, ptr @XObjectAlignmentSmall, align 8
  br label %_ZNK5XPage16object_alignmentEv.exit.sink.split

_ZNK5XPage16object_alignmentEv.exit.sink.split:   ; preds = %4, %13
  %.sink5 = phi ptr [ %14, %13 ], [ @XObjectAlignmentMedium, %4 ]
  %15 = load i32, ptr %.sink5, align 4
  %16 = sext i32 %15 to i64
  br label %_ZNK5XPage16object_alignmentEv.exit

_ZNK5XPage16object_alignmentEv.exit:              ; preds = %_ZNK5XPage16object_alignmentEv.exit.sink.split, %4
  %.0.i = phi i64 [ 2097152, %4 ], [ %16, %_ZNK5XPage16object_alignmentEv.exit.sink.split ]
  %17 = load ptr, ptr @_ZN4XCPU9_affinityE, align 8
  %18 = tail call align 4 ptr @llvm.threadlocal.address.p0(ptr align 4 @_ZN4XCPU4_cpuE)
  %19 = load i32, ptr %18, align 4
  %20 = zext i32 %19 to i64
  %21 = getelementptr inbounds %class.PaddedEnd, ptr %17, i64 %20
  %22 = load ptr, ptr %21, align 8
  %23 = tail call align 8 ptr @llvm.threadlocal.address.p0(ptr align 8 @_ZN4XCPU5_selfE)
  %24 = load ptr, ptr %23, align 8
  %25 = icmp eq ptr %22, %24
  br i1 %25, label %_ZN14XPerCPUStorage2idEv.exit, label %26

26:                                               ; preds = %_ZNK5XPage16object_alignmentEv.exit
  %27 = tail call noundef i32 @_ZN4XCPU7id_slowEv() #7
  %.pre = zext i32 %27 to i64
  br label %_ZN14XPerCPUStorage2idEv.exit

_ZN14XPerCPUStorage2idEv.exit:                    ; preds = %_ZNK5XPage16object_alignmentEv.exit, %26
  %.pre-phi = phi i64 [ %20, %_ZNK5XPage16object_alignmentEv.exit ], [ %.pre, %26 ]
  %28 = getelementptr inbounds i8, ptr %0, i64 24
  %29 = add i64 %3, -1
  %30 = add i64 %29, %.0.i
  %31 = sub nsw i64 0, %.0.i
  %32 = and i64 %30, %31
  %33 = load i64, ptr %28, align 8
  %34 = shl nuw nsw i64 %.pre-phi, 12
  %35 = add i64 %34, %33
  %36 = inttoptr i64 %35 to ptr
  %37 = tail call noundef i64 asm sideeffect "lock xaddq $0,($2)", "=r,0,r,~{cc},~{memory},~{dirflag},~{fpsr},~{flags}"(i64 %32, ptr %36) #7, !srcloc !9
  ret void
}